; Function Attrs: mustprogress uwtable
define void @_ZN2cv3minERKNS_3MatES2_RS0_(ptr noundef nonnull align 8 dereferenceable(96) %0, ptr noundef nonnull align 8 dereferenceable(96) %1, ptr noundef nonnull align 8 dereferenceable(96) %2) local_unnamed_addr #0 personality ptr @__gxx_personality_v0 {
  %4 = alloca %"class.cv::utils::trace::details::Region", align 8
  %5 = alloca %"class.cv::_OutputArray", align 8
  %6 = alloca %"class.cv::_InputArray", align 8
  %7 = alloca %"class.cv::_InputArray", align 8
  call void @_ZN2cv5utils5trace7details6RegionC1ERKNS3_21LocationStaticStorageE(ptr noundef nonnull align 8 dereferenceable(12) %4, ptr noundef nonnull align 8 dereferenceable(32) @_ZZN2cv3minERKNS_3MatES2_RS0_E25__cv_trace_location_fn416)
  %8 = getelementptr inbounds i8, ptr %5, i64 8
  %9 = getelementptr inbounds i8, ptr %5, i64 16
  store i64 0, ptr %9, align 8
  store i32 33619968, ptr %5, align 8
  store ptr %2, ptr %8, align 8
  %10 = getelementptr inbounds i8, ptr %6, i64 16
  store i32 0, ptr %10, align 8
  %11 = getelementptr inbounds i8, ptr %6, i64 20
  store i32 0, ptr %11, align 4
  store i32 16842752, ptr %6, align 8
  %12 = getelementptr inbounds i8, ptr %6, i64 8
  store ptr %0, ptr %12, align 8
  %13 = getelementptr inbounds i8, ptr %7, i64 16
  store i32 0, ptr %13, align 8
  %14 = getelementptr inbounds i8, ptr %7, i64 20
  store i32 0, ptr %14, align 4
  store i32 16842752, ptr %7, align 8
  %15 = getelementptr inbounds i8, ptr %7, i64 8
  store ptr %1, ptr %15, align 8
  %16 = invoke noundef nonnull align 8 dereferenceable(24) ptr @_ZN2cv7noArrayEv()
          to label %17 unwind label %25

17:                                               ; preds = %3
  invoke fastcc void @_ZN2cvL9binary_opERKNS_11_InputArrayES2_RKNS_12_OutputArrayES2_PKPFvPKhmS7_mPhmiiPvEbi(ptr noundef nonnull align 8 dereferenceable(24) %6, ptr noundef nonnull align 8 dereferenceable(24) %7, ptr noundef nonnull align 8 dereferenceable(24) %5, ptr noundef nonnull align 8 dereferenceable(24) %16, ptr noundef nonnull @_ZZN2cvL9getMinTabEvE6minTab, i1 noundef zeroext false, i32 noundef 13)
          to label %18 unwind label %25

18:                                               ; preds = %17
  %19 = getelementptr inbounds i8, ptr %4, i64 8
  %20 = load i32, ptr %19, align 8
  %.not.i = icmp eq i32 %20, 0
  br i1 %.not.i, label %_ZN2cv5utils5trace7details6RegionD2Ev.exit, label %21

21:                                               ; preds = %18
  invoke void @_ZN2cv5utils5trace7details6Region7destroyEv(ptr noundef nonnull align 8 dereferenceable(12) %4)
          to label %_ZN2cv5utils5trace7details6RegionD2Ev.exit unwind label %22

22:                                               ; preds = %21
  %23 = landingpad { ptr, i32 }
          catch ptr null
  %24 = extractvalue { ptr, i32 } %23, 0
  call void @__clang_call_terminate(ptr %24) #17
  unreachable

_ZN2cv5utils5trace7details6RegionD2Ev.exit:       ; preds = %18, %21
  ret void

25:                                               ; preds = %17, %3
  %26 = landingpad { ptr, i32 }
          cleanup
  call void @_ZN2cv5utils5trace7details6RegionD2Ev(ptr noundef nonnull align 8 dereferenceable(12) %4) #18
  resume { ptr, i32 } %26
}